; Function Attrs: nounwind uwtable
define internal fastcc noalias nonnull ptr @_init_l_Array_forIn_x27Unsafe_loop___at_Lean_Elab_WF_solveDecreasingGoals___spec__3___closed__6() unnamed_addr #1 {
  tail call void @lean_inc_heartbeat() #5
  %1 = tail call noalias ptr @mi_malloc_small(i64 noundef 64) #5
  %2 = icmp eq ptr %1, null
  br i1 %2, label %3, label %lean_alloc_ctor.exit

3:                                                ; preds = %0
  tail call void @lean_internal_panic_out_of_memory() #6
  unreachable

lean_alloc_ctor.exit:                             ; preds = %0
  %4 = getelementptr inbounds nuw i8, ptr %1, i64 4
  store i32 1, ptr %1, align 4, !tbaa !8
  store i32 458816, ptr %4, align 4
  %5 = getelementptr inbounds nuw i8, ptr %1, i64 8
  store ptr inttoptr (i64 1 to ptr), ptr %5, align 8, !tbaa !12
  %6 = getelementptr inbounds nuw i8, ptr %1, i64 16
  store ptr inttoptr (i64 1 to ptr), ptr %6, align 8, !tbaa !12
  %7 = getelementptr inbounds nuw i8, ptr %1, i64 24
  store ptr inttoptr (i64 1 to ptr), ptr %7, align 8, !tbaa !12
  %8 = getelementptr inbounds nuw i8, ptr %1, i64 32
  store ptr inttoptr (i64 1 to ptr), ptr %8, align 8, !tbaa !12
  %9 = getelementptr inbounds nuw i8, ptr %1, i64 40
  store ptr inttoptr (i64 1 to ptr), ptr %9, align 8, !tbaa !12
  %10 = getelementptr inbounds nuw i8, ptr %1, i64 48
  store ptr inttoptr (i64 1 to ptr), ptr %10, align 8, !tbaa !12
  %11 = getelementptr inbounds nuw i8, ptr %1, i64 56
  store ptr inttoptr (i64 1 to ptr), ptr %11, align 8, !tbaa !12
  ret ptr %1
}